(iou_noise
OUNoise
p0
(dp1
S'mu'
p2
I0
sS'theta'
p3
F0.15
sS'state'
p4
cnumpy.core.multiarray
_reconstruct
p5
(cnumpy
ndarray
p6
(I0
tp7
S'b'
p8
tp9
Rp10
(I1
(I1
tp11
cnumpy
dtype
p12
(S'f8'
p13
I0
I1
tp14
Rp15
(I3
S'<'
p16
NNNI-1
I-1
I0
tp17
bI00
S'\xd5\xb4s3\xb4\xc5\xd9\xbf'
p18
tp19
bsS'action_dimension'
p20
I1
sS'sigma'
p21
F0.2
sb.