ccopy_reg
_reconstructor
p0
(creplay_buffer
ReplayBuffer
p1
c__builtin__
object
p2
Ntp3
Rp4
(dp5
S'buffer'
p6
ccollections
deque
p7
((lp8
(ctorch._utils
_rebuild_tensor
p9
(ctorch
FloatStorage
p10
((lp11
F0.35699132084846497
aF0.7262614965438843
aF-0.1988801807165146
atp12
Rp13
I0
(L1L
L3L
tp14
(L3L
L1L
tp15
tp16
Rp17
g9
(g10
((lp18
F0.0029515898786485195
atp19
Rp20
I0
(L1L
L1L
tp21
(L1L
L1L
tp22
tp23
Rp24
g9
(g10
((lp25
F-0.7958056330680847
atp26
Rp27
I0
(L1L
L1L
tp28
(L1L
L1L
tp29
tp30
Rp31
g9
(g10
((lp32
F0.19601570069789886
aF-0.901363730430603
aF-0.6632362008094788
atp33
Rp34
I0
(L1L
L3L
tp35
(L3L
L1L
tp36
tp37
Rp38
I00
tp39
a(g9
(g10
((lp40
F0.19601570069789886
aF-0.901363730430603
aF-0.6632362008094788
atp41
Rp42
I0
(L1L
L3L
tp43
(L3L
L1L
tp44
tp45
Rp46
g9
(g10
((lp47
F0.0014549916377291083
atp48
Rp49
I0
(L1L
L1L
tp50
(L1L
L1L
tp51
tp52
Rp53
g9
(g10
((lp54
F0.5570374727249146
atp55
Rp56
I0
(L1L
L1L
tp57
(L1L
L1L
tp58
tp59
Rp60
g9
(g10
((lp61
F-0.06588031351566315
aF0.037018775939941406
aF0.3603602945804596
atp62
Rp63
I0
(L1L
L3L
tp64
(L3L
L1L
tp65
tp66
Rp67
I00
tp68
a(g9
(g10
((lp69
F-0.06588031351566315
aF0.037018775939941406
aF0.3603602945804596
atp70
Rp71
I0
(L1L
L3L
tp72
(L3L
L1L
tp73
tp74
Rp75
g9
(g10
((lp76
F0.0021046516485512257
atp77
Rp78
I0
(L1L
L1L
tp79
(L1L
L1L
tp80
tp81
Rp82
g9
(g10
((lp83
F-0.42699816823005676
atp84
Rp85
I0
(L1L
L1L
tp86
(L1L
L1L
tp87
tp88
Rp89
g9
(g10
((lp90
F-0.7883219718933105
aF-0.37816429138183594
aF0.27358075976371765
atp91
Rp92
I0
(L1L
L3L
tp93
(L3L
L1L
tp94
tp95
Rp96
I00
tp97
a(g9
(g10
((lp98
F-0.7883219718933105
aF-0.37816429138183594
aF0.27358075976371765
atp99
Rp100
I0
(L1L
L3L
tp101
(L3L
L1L
tp102
tp103
Rp104
g9
(g10
((lp105
F-0.0015144037315621972
atp106
Rp107
I0
(L1L
L1L
tp108
(L1L
L1L
tp109
tp110
Rp111
g9
(g10
((lp112
F0.0007393988780677319
atp113
Rp114
I0
(L1L
L1L
tp115
(L1L
L1L
tp116
tp117
Rp118
g9
(g10
((lp119
F0.6828967928886414
aF0.6062162518501282
aF0.14913102984428406
atp120
Rp121
I0
(L1L
L3L
tp122
(L3L
L1L
tp123
tp124
Rp125
I00
tp126
a(g9
(g10
((lp127
F0.6828967928886414
aF0.6062162518501282
aF0.14913102984428406
atp128
Rp129
I0
(L1L
L3L
tp130
(L3L
L1L
tp131
tp132
Rp133
g9
(g10
((lp134
F0.004293925128877163
atp135
Rp136
I0
(L1L
L1L
tp137
(L1L
L1L
tp138
tp139
Rp140
g9
(g10
((lp141
F0.29011207818984985
atp142
Rp143
I0
(L1L
L1L
tp144
(L1L
L1L
tp145
tp146
Rp147
g9
(g10
((lp148
F-0.34084340929985046
aF-0.16941562294960022
aF-0.16486793756484985
atp149
Rp150
I0
(L1L
L3L
tp151
(L3L
L1L
tp152
tp153
Rp154
I00
tp155
a(g9
(g10
((lp156
F-0.34084340929985046
aF-0.16941562294960022
aF-0.16486793756484985
atp157
Rp158
I0
(L1L
L3L
tp159
(L3L
L1L
tp160
tp161
Rp162
g9
(g10
((lp163
F-0.00042081039282493293
atp164
Rp165
I0
(L1L
L1L
tp166
(L1L
L1L
tp167
tp168
Rp169
g9
(g10
((lp170
F0.9383435249328613
atp171
Rp172
I0
(L1L
L1L
tp173
(L1L
L1L
tp174
tp175
Rp176
g9
(g10
((lp177
F0.3487779498100281
aF0.3432208001613617
aF0.36026450991630554
atp178
Rp179
I0
(L1L
L3L
tp180
(L3L
L1L
tp181
tp182
Rp183
I00
tp184
a(g9
(g10
((lp185
F0.3487779498100281
aF0.3432208001613617
aF0.36026450991630554
atp186
Rp187
I0
(L1L
L3L
tp188
(L3L
L1L
tp189
tp190
Rp191
g9
(g10
((lp192
F0.0034911101683974266
atp193
Rp194
I0
(L1L
L1L
tp195
(L1L
L1L
tp196
tp197
Rp198
g9
(g10
((lp199
F0.542181134223938
atp200
Rp201
I0
(L1L
L1L
tp202
(L1L
L1L
tp203
tp204
Rp205
g9
(g10
((lp206
F0.14676396548748016
aF-0.7172012329101562
aF-0.5691705346107483
atp207
Rp208
I0
(L1L
L3L
tp209
(L3L
L1L
tp210
tp211
Rp212
I00
tp213
a(g9
(g10
((lp214
F0.14676396548748016
aF-0.7172012329101562
aF-0.5691705346107483
atp215
Rp216
I0
(L1L
L3L
tp217
(L3L
L1L
tp218
tp219
Rp220
g9
(g10
((lp221
F0.0007774051045998931
atp222
Rp223
I0
(L1L
L1L
tp224
(L1L
L1L
tp225
tp226
Rp227
g9
(g10
((lp228
F-0.12158546596765518
atp229
Rp230
I0
(L1L
L1L
tp231
(L1L
L1L
tp232
tp233
Rp234
g9
(g10
((lp235
F0.4377874433994293
aF0.9301274418830872
aF0.3958390951156616
atp236
Rp237
I0
(L1L
L3L
tp238
(L3L
L1L
tp239
tp240
Rp241
I00
tp242
a(g9
(g10
((lp243
F0.4377874433994293
aF0.9301274418830872
aF0.3958390951156616
atp244
Rp245
I0
(L1L
L3L
tp246
(L3L
L1L
tp247
tp248
Rp249
g9
(g10
((lp250
F0.003917862195521593
atp251
Rp252
I0
(L1L
L1L
tp253
(L1L
L1L
tp254
tp255
Rp256
g9
(g10
((lp257
F-0.9409669637680054
atp258
Rp259
I0
(L1L
L1L
tp260
(L1L
L1L
tp261
tp262
Rp263
g9
(g10
((lp264
F0.8381587862968445
aF-0.28760993480682373
aF-0.3294160068035126
atp265
Rp266
I0
(L1L
L3L
tp267
(L3L
L1L
tp268
tp269
Rp270
I00
tp271
a(g9
(g10
((lp272
F0.8381587862968445
aF-0.28760993480682373
aF-0.3294160068035126
atp273
Rp274
I0
(L1L
L3L
tp275
(L3L
L1L
tp276
tp277
Rp278
g9
(g10
((lp279
F0.005026024300605059
atp280
Rp281
I0
(L1L
L1L
tp282
(L1L
L1L
tp283
tp284
Rp285
g9
(g10
((lp286
F-0.2918168008327484
atp287
Rp288
I0
(L1L
L1L
tp289
(L1L
L1L
tp290
tp291
Rp292
g9
(g10
((lp293
F-0.7755966782569885
aF-0.633894145488739
aF0.675760805606842
atp294
Rp295
I0
(L1L
L3L
tp296
(L3L
L1L
tp297
tp298
Rp299
I00
tp300
a(g9
(g10
((lp301
F-0.7755966782569885
aF-0.633894145488739
aF0.675760805606842
atp302
Rp303
I0
(L1L
L3L
tp304
(L3L
L1L
tp305
tp306
Rp307
g9
(g10
((lp308
F-0.0008759609772823751
atp309
Rp310
I0
(L1L
L1L
tp311
(L1L
L1L
tp312
tp313
Rp314
g9
(g10
((lp315
F-0.19067730009555817
atp316
Rp317
I0
(L1L
L1L
tp318
(L1L
L1L
tp319
tp320
Rp321
g9
(g10
((lp322
F0.9457406997680664
aF-0.8206267952919006
aF0.209783673286438
atp323
Rp324
I0
(L1L
L3L
tp325
(L3L
L1L
tp326
tp327
Rp328
I00
tp329
a(g9
(g10
((lp330
F0.9457406997680664
aF-0.8206267952919006
aF0.209783673286438
atp331
Rp332
I0
(L1L
L3L
tp333
(L3L
L1L
tp334
tp335
Rp336
g9
(g10
((lp337
F0.006052752491086721
atp338
Rp339
I0
(L1L
L1L
tp340
(L1L
L1L
tp341
tp342
Rp343
g9
(g10
((lp344
F0.6530503630638123
atp345
Rp346
I0
(L1L
L1L
tp347
(L1L
L1L
tp348
tp349
Rp350
g9
(g10
((lp351
F0.9183340668678284
aF-0.9176233410835266
aF-0.6667495965957642
atp352
Rp353
I0
(L1L
L3L
tp354
(L3L
L1L
tp355
tp356
Rp357
I00
tp358
a(g9
(g10
((lp359
F0.9183340668678284
aF-0.9176233410835266
aF-0.6667495965957642
atp360
Rp361
I0
(L1L
L3L
tp362
(L3L
L1L
tp363
tp364
Rp365
g9
(g10
((lp366
F0.006161870900541544
atp367
Rp368
I0
(L1L
L1L
tp369
(L1L
L1L
tp370
tp371
Rp372
g9
(g10
((lp373
F0.4047131836414337
atp374
Rp375
I0
(L1L
L1L
tp376
(L1L
L1L
tp377
tp378
Rp379
g9
(g10
((lp380
F0.35469210147857666
aF0.5688626766204834
aF0.20957019925117493
atp381
Rp382
I0
(L1L
L3L
tp383
(L3L
L1L
tp384
tp385
Rp386
I00
tp387
a(g9
(g10
((lp388
F0.35469210147857666
aF0.5688626766204834
aF0.20957019925117493
atp389
Rp390
I0
(L1L
L3L
tp391
(L3L
L1L
tp392
tp393
Rp394
g9
(g10
((lp395
F0.0034528602845966816
atp396
Rp397
I0
(L1L
L1L
tp398
(L1L
L1L
tp399
tp400
Rp401
g9
(g10
((lp402
F0.386441171169281
atp403
Rp404
I0
(L1L
L1L
tp405
(L1L
L1L
tp406
tp407
Rp408
g9
(g10
((lp409
F0.4669310450553894
aF-0.1894449144601822
aF-0.6592217683792114
atp410
Rp411
I0
(L1L
L3L
tp412
(L3L
L1L
tp413
tp414
Rp415
I00
tp416
a(g9
(g10
((lp417
F0.4669310450553894
aF-0.1894449144601822
aF-0.6592217683792114
atp418
Rp419
I0
(L1L
L3L
tp420
(L3L
L1L
tp421
tp422
Rp423
g9
(g10
((lp424
F0.0036037741228938103
atp425
Rp426
I0
(L1L
L1L
tp427
(L1L
L1L
tp428
tp429
Rp430
g9
(g10
((lp431
F0.15581250190734863
atp432
Rp433
I0
(L1L
L1L
tp434
(L1L
L1L
tp435
tp436
Rp437
g9
(g10
((lp438
F0.9654403924942017
aF0.5951641201972961
aF0.7124836444854736
atp439
Rp440
I0
(L1L
L3L
tp441
(L3L
L1L
tp442
tp443
Rp444
I00
tp445
a(g9
(g10
((lp446
F0.9654403924942017
aF0.5951641201972961
aF0.7124836444854736
atp447
Rp448
I0
(L1L
L3L
tp449
(L3L
L1L
tp450
tp451
Rp452
g9
(g10
((lp453
F0.006099102087318897
atp454
Rp455
I0
(L1L
L1L
tp456
(L1L
L1L
tp457
tp458
Rp459
g9
(g10
((lp460
F0.2752231955528259
atp461
Rp462
I0
(L1L
L1L
tp463
(L1L
L1L
tp464
tp465
Rp466
g9
(g10
((lp467
F0.9928588271141052
aF0.23295626044273376
aF0.9809110760688782
atp468
Rp469
I0
(L1L
L3L
tp470
(L3L
L1L
tp471
tp472
Rp473
I00
tp474
a(g9
(g10
((lp475
F0.9928588271141052
aF0.23295626044273376
aF0.9809110760688782
atp476
Rp477
I0
(L1L
L3L
tp478
(L3L
L1L
tp479
tp480
Rp481
g9
(g10
((lp482
F0.006595653016120195
atp483
Rp484
I0
(L1L
L1L
tp485
(L1L
L1L
tp486
tp487
Rp488
g9
(g10
((lp489
F0.7426800727844238
atp490
Rp491
I0
(L1L
L1L
tp492
(L1L
L1L
tp493
tp494
Rp495
g9
(g10
((lp496
F0.7296097278594971
aF0.40625351667404175
aF-0.1471261829137802
atp497
Rp498
I0
(L1L
L3L
tp499
(L3L
L1L
tp500
tp501
Rp502
I00
tp503
a(g9
(g10
((lp504
F0.7296097278594971
aF0.40625351667404175
aF-0.1471261829137802
atp505
Rp506
I0
(L1L
L3L
tp507
(L3L
L1L
tp508
tp509
Rp510
g9
(g10
((lp511
F0.004405336454510689
atp512
Rp513
I0
(L1L
L1L
tp514
(L1L
L1L
tp515
tp516
Rp517
g9
(g10
((lp518
F-0.9136384129524231
atp519
Rp520
I0
(L1L
L1L
tp521
(L1L
L1L
tp522
tp523
Rp524
g9
(g10
((lp525
F-0.714912474155426
aF-0.8005070686340332
aF0.1106746643781662
atp526
Rp527
I0
(L1L
L3L
tp528
(L3L
L1L
tp529
tp530
Rp531
I00
tp532
a(g9
(g10
((lp533
F-0.714912474155426
aF-0.8005070686340332
aF0.1106746643781662
atp534
Rp535
I0
(L1L
L3L
tp536
(L3L
L1L
tp537
tp538
Rp539
g9
(g10
((lp540
F-0.0016097633633762598
atp541
Rp542
I0
(L1L
L1L
tp543
(L1L
L1L
tp544
tp545
Rp546
g9
(g10
((lp547
F0.30865806341171265
atp548
Rp549
I0
(L1L
L1L
tp550
(L1L
L1L
tp551
tp552
Rp553
g9
(g10
((lp554
F-0.06728115677833557
aF0.07625313848257065
aF0.2556905448436737
atp555
Rp556
I0
(L1L
L3L
tp557
(L3L
L1L
tp558
tp559
Rp560
I00
tp561
a(g9
(g10
((lp562
F-0.06728115677833557
aF0.07625313848257065
aF0.2556905448436737
atp563
Rp564
I0
(L1L
L3L
tp565
(L3L
L1L
tp566
tp567
Rp568
g9
(g10
((lp569
F0.0021101885940879583
atp570
Rp571
I0
(L1L
L1L
tp572
(L1L
L1L
tp573
tp574
Rp575
g9
(g10
((lp576
F0.1681070774793625
atp577
Rp578
I0
(L1L
L1L
tp579
(L1L
L1L
tp580
tp581
Rp582
g9
(g10
((lp583
F0.855673611164093
aF0.05524671822786331
aF-0.42529135942459106
atp584
Rp585
I0
(L1L
L3L
tp586
(L3L
L1L
tp587
tp588
Rp589
I00
tp590
a(g9
(g10
((lp591
F0.855673611164093
aF0.05524671822786331
aF-0.42529135942459106
atp592
Rp593
I0
(L1L
L3L
tp594
(L3L
L1L
tp595
tp596
Rp597
g9
(g10
((lp598
F0.005399205256253481
atp599
Rp600
I0
(L1L
L1L
tp601
(L1L
L1L
tp602
tp603
Rp604
g9
(g10
((lp605
F0.3160116970539093
atp606
Rp607
I0
(L1L
L1L
tp608
(L1L
L1L
tp609
tp610
Rp611
g9
(g10
((lp612
F-0.45512446761131287
aF-0.4775572717189789
aF-0.4271990954875946
atp613
Rp614
I0
(L1L
L3L
tp615
(L3L
L1L
tp616
tp617
Rp618
I00
tp619
a(g9
(g10
((lp620
F-0.45512446761131287
aF-0.4775572717189789
aF-0.4271990954875946
atp621
Rp622
I0
(L1L
L3L
tp623
(L3L
L1L
tp624
tp625
Rp626
g9
(g10
((lp627
F-0.0012172941351309419
atp628
Rp629
I0
(L1L
L1L
tp630
(L1L
L1L
tp631
tp632
Rp633
g9
(g10
((lp634
F0.46857085824012756
atp635
Rp636
I0
(L1L
L1L
tp637
(L1L
L1L
tp638
tp639
Rp640
g9
(g10
((lp641
F0.5624035596847534
aF-0.5164564251899719
aF0.14240339398384094
atp642
Rp643
I0
(L1L
L3L
tp644
(L3L
L1L
tp645
tp646
Rp647
I00
tp648
a(g9
(g10
((lp649
F0.5624035596847534
aF-0.5164564251899719
aF0.14240339398384094
atp650
Rp651
I0
(L1L
L3L
tp652
(L3L
L1L
tp653
tp654
Rp655
g9
(g10
((lp656
F0.004012158140540123
atp657
Rp658
I0
(L1L
L1L
tp659
(L1L
L1L
tp660
tp661
Rp662
g9
(g10
((lp663
F-0.31439846754074097
atp664
Rp665
I0
(L1L
L1L
tp666
(L1L
L1L
tp667
tp668
Rp669
g9
(g10
((lp670
F-0.5517823100090027
aF-0.13669614493846893
aF0.45038965344429016
atp671
Rp672
I0
(L1L
L3L
tp673
(L3L
L1L
tp674
tp675
Rp676
I00
tp677
a(g9
(g10
((lp678
F-0.5517823100090027
aF-0.13669614493846893
aF0.45038965344429016
atp679
Rp680
I0
(L1L
L3L
tp681
(L3L
L1L
tp682
tp683
Rp684
g9
(g10
((lp685
F-0.0006291907629929483
atp686
Rp687
I0
(L1L
L1L
tp688
(L1L
L1L
tp689
tp690
Rp691
g9
(g10
((lp692
F0.8297002911567688
atp693
Rp694
I0
(L1L
L1L
tp695
(L1L
L1L
tp696
tp697
Rp698
g9
(g10
((lp699
F-0.7682739496231079
aF-0.33448654413223267
aF-0.3604533076286316
atp700
Rp701
I0
(L1L
L3L
tp702
(L3L
L1L
tp703
tp704
Rp705
I00
tp706
a(g9
(g10
((lp707
F-0.7682739496231079
aF-0.33448654413223267
aF-0.3604533076286316
atp708
Rp709
I0
(L1L
L3L
tp710
(L3L
L1L
tp711
tp712
Rp713
g9
(g10
((lp714
F-0.002554225269705057
atp715
Rp716
I0
(L1L
L1L
tp717
(L1L
L1L
tp718
tp719
Rp720
g9
(g10
((lp721
F0.3459630608558655
atp722
Rp723
I0
(L1L
L1L
tp724
(L1L
L1L
tp725
tp726
Rp727
g9
(g10
((lp728
F0.36215904355049133
aF0.11200650781393051
aF-0.23738175630569458
atp729
Rp730
I0
(L1L
L3L
tp731
(L3L
L1L
tp732
tp733
Rp734
I00
tp735
a(g9
(g10
((lp736
F0.36215904355049133
aF0.11200650781393051
aF-0.23738175630569458
atp737
Rp738
I0
(L1L
L3L
tp739
(L3L
L1L
tp740
tp741
Rp742
g9
(g10
((lp743
F0.003617239883169532
atp744
Rp745
I0
(L1L
L1L
tp746
(L1L
L1L
tp747
tp748
Rp749
g9
(g10
((lp750
F-0.2101706713438034
atp751
Rp752
I0
(L1L
L1L
tp753
(L1L
L1L
tp754
tp755
Rp756
g9
(g10
((lp757
F-0.8278478384017944
aF-0.15765559673309326
aF0.4338846802711487
atp758
Rp759
I0
(L1L
L3L
tp760
(L3L
L1L
tp761
tp762
Rp763
I00
tp764
a(g9
(g10
((lp765
F-0.8278478384017944
aF-0.15765559673309326
aF0.4338846802711487
atp766
Rp767
I0
(L1L
L3L
tp768
(L3L
L1L
tp769
tp770
Rp771
g9
(g10
((lp772
F-0.0013278600526973605
atp773
Rp774
I0
(L1L
L1L
tp775
(L1L
L1L
tp776
tp777
Rp778
g9
(g10
((lp779
F-0.4167294502258301
atp780
Rp781
I0
(L1L
L1L
tp782
(L1L
L1L
tp783
tp784
Rp785
g9
(g10
((lp786
F0.9599555730819702
aF-0.6934527158737183
aF0.6109949946403503
atp787
Rp788
I0
(L1L
L3L
tp789
(L3L
L1L
tp790
tp791
Rp792
I00
tp793
a(g9
(g10
((lp794
F0.9599555730819702
aF-0.6934527158737183
aF0.6109949946403503
atp795
Rp796
I0
(L1L
L3L
tp797
(L3L
L1L
tp798
tp799
Rp800
g9
(g10
((lp801
F0.00620295898988843
atp802
Rp803
I0
(L1L
L1L
tp804
(L1L
L1L
tp805
tp806
Rp807
g9
(g10
((lp808
F-0.15258687734603882
atp809
Rp810
I0
(L1L
L1L
tp811
(L1L
L1L
tp812
tp813
Rp814
g9
(g10
((lp815
F0.8122799396514893
aF-0.746086061000824
aF0.3154493272304535
atp816
Rp817
I0
(L1L
L3L
tp818
(L3L
L1L
tp819
tp820
Rp821
I00
tp822
a(g9
(g10
((lp823
F0.8122799396514893
aF-0.746086061000824
aF0.3154493272304535
atp824
Rp825
I0
(L1L
L3L
tp826
(L3L
L1L
tp827
tp828
Rp829
g9
(g10
((lp830
F0.005414008162915707
atp831
Rp832
I0
(L1L
L1L
tp833
(L1L
L1L
tp834
tp835
Rp836
g9
(g10
((lp837
F-0.8639838099479675
atp838
Rp839
I0
(L1L
L1L
tp840
(L1L
L1L
tp841
tp842
Rp843
g9
(g10
((lp844
F-0.7032927870750427
aF0.7454268336296082
aF0.9599733948707581
atp845
Rp846
I0
(L1L
L3L
tp847
(L3L
L1L
tp848
tp849
Rp850
I00
tp851
a(g9
(g10
((lp852
F-0.7032927870750427
aF0.7454268336296082
aF0.9599733948707581
atp853
Rp854
I0
(L1L
L3L
tp855
(L3L
L1L
tp856
tp857
Rp858
g9
(g10
((lp859
F0.00128248892724514
atp860
Rp861
I0
(L1L
L1L
tp862
(L1L
L1L
tp863
tp864
Rp865
g9
(g10
((lp866
F-0.43709081411361694
atp867
Rp868
I0
(L1L
L1L
tp869
(L1L
L1L
tp870
tp871
Rp872
g9
(g10
((lp873
F-0.5040704011917114
aF0.544457733631134
aF0.23485445976257324
atp874
Rp875
I0
(L1L
L3L
tp876
(L3L
L1L
tp877
tp878
Rp879
I00
tp880
a(g9
(g10
((lp881
F-0.5040704011917114
aF0.544457733631134
aF0.23485445976257324
atp882
Rp883
I0
(L1L
L3L
tp884
(L3L
L1L
tp885
tp886
Rp887
g9
(g10
((lp888
F0.0008166740299202502
atp889
Rp890
I0
(L1L
L1L
tp891
(L1L
L1L
tp892
tp893
Rp894
g9
(g10
((lp895
F-0.37361806631088257
atp896
Rp897
I0
(L1L
L1L
tp898
(L1L
L1L
tp899
tp900
Rp901
g9
(g10
((lp902
F0.28681182861328125
aF-0.9313927292823792
aF0.3175428807735443
atp903
Rp904
I0
(L1L
L3L
tp905
(L3L
L1L
tp906
tp907
Rp908
I00
tp909
a(g9
(g10
((lp910
F0.28681182861328125
aF-0.9313927292823792
aF0.3175428807735443
atp911
Rp912
I0
(L1L
L3L
tp913
(L3L
L1L
tp914
tp915
Rp916
g9
(g10
((lp917
F0.003288751933723688
atp918
Rp919
I0
(L1L
L1L
tp920
(L1L
L1L
tp921
tp922
Rp923
g9
(g10
((lp924
F-0.8379102349281311
atp925
Rp926
I0
(L1L
L1L
tp927
(L1L
L1L
tp928
tp929
Rp930
g9
(g10
((lp931
F-0.39257174730300903
aF-0.20105765759944916
aF0.30773457884788513
atp932
Rp933
I0
(L1L
L3L
tp934
(L3L
L1L
tp935
tp936
Rp937
I00
tp938
a(g9
(g10
((lp939
F-0.39257174730300903
aF-0.20105765759944916
aF0.30773457884788513
atp940
Rp941
I0
(L1L
L3L
tp942
(L3L
L1L
tp943
tp944
Rp945
g9
(g10
((lp946
F-0.0003993457357864827
atp947
Rp948
I0
(L1L
L1L
tp949
(L1L
L1L
tp950
tp951
Rp952
g9
(g10
((lp953
F-0.20400570333003998
atp954
Rp955
I0
(L1L
L1L
tp956
(L1L
L1L
tp957
tp958
Rp959
g9
(g10
((lp960
F-0.41079622507095337
aF-0.4781987965106964
aF0.5232102274894714
atp961
Rp962
I0
(L1L
L3L
tp963
(L3L
L1L
tp964
tp965
Rp966
I00
tp967
a(g9
(g10
((lp968
F-0.41079622507095337
aF-0.4781987965106964
aF0.5232102274894714
atp969
Rp970
I0
(L1L
L3L
tp971
(L3L
L1L
tp972
tp973
Rp974
g9
(g10
((lp975
F0.00030110610532574356
atp976
Rp977
I0
(L1L
L1L
tp978
(L1L
L1L
tp979
tp980
Rp981
g9
(g10
((lp982
F-0.5926278233528137
atp983
Rp984
I0
(L1L
L1L
tp985
(L1L
L1L
tp986
tp987
Rp988
g9
(g10
((lp989
F0.8686572313308716
aF-0.7210457921028137
aF0.16671942174434662
atp990
Rp991
I0
(L1L
L3L
tp992
(L3L
L1L
tp993
tp994
Rp995
I00
tp996
a(g9
(g10
((lp997
F0.8686572313308716
aF-0.7210457921028137
aF0.16671942174434662
atp998
Rp999
I0
(L1L
L3L
tp1000
(L3L
L1L
tp1001
tp1002
Rp1003
g9
(g10
((lp1004
F0.0057213203981518745
atp1005
Rp1006
I0
(L1L
L1L
tp1007
(L1L
L1L
tp1008
tp1009
Rp1010
g9
(g10
((lp1011
F-0.5119439959526062
atp1012
Rp1013
I0
(L1L
L1L
tp1014
(L1L
L1L
tp1015
tp1016
Rp1017
g9
(g10
((lp1018
F0.14108696579933167
aF-0.9559993743896484
aF-0.6572893261909485
atp1019
Rp1020
I0
(L1L
L3L
tp1021
(L3L
L1L
tp1022
tp1023
Rp1024
I00
tp1025
a(g9
(g10
((lp1026
F0.14108696579933167
aF-0.9559993743896484
aF-0.6572893261909485
atp1027
Rp1028
I0
(L1L
L3L
tp1029
(L3L
L1L
tp1030
tp1031
Rp1032
g9
(g10
((lp1033
F0.0012291797902435064
atp1034
Rp1035
I0
(L1L
L1L
tp1036
(L1L
L1L
tp1037
tp1038
Rp1039
g9
(g10
((lp1040
F-0.14531062543392181
atp1041
Rp1042
I0
(L1L
L1L
tp1043
(L1L
L1L
tp1044
tp1045
Rp1046
g9
(g10
((lp1047
F-0.4012393355369568
aF0.24900969862937927
aF-0.31797629594802856
atp1048
Rp1049
I0
(L1L
L3L
tp1050
(L3L
L1L
tp1051
tp1052
Rp1053
I00
tp1054
a(g9
(g10
((lp1055
F-0.4012393355369568
aF0.24900969862937927
aF-0.31797629594802856
atp1056
Rp1057
I0
(L1L
L3L
tp1058
(L3L
L1L
tp1059
tp1060
Rp1061
g9
(g10
((lp1062
F0.00027072452940046787
atp1063
Rp1064
I0
(L1L
L1L
tp1065
(L1L
L1L
tp1066
tp1067
Rp1068
g9
(g10
((lp1069
F0.8155531287193298
atp1070
Rp1071
I0
(L1L
L1L
tp1072
(L1L
L1L
tp1073
tp1074
Rp1075
g9
(g10
((lp1076
F-0.44899851083755493
aF-0.9657943248748779
aF-0.8054855465888977
atp1077
Rp1078
I0
(L1L
L3L
tp1079
(L3L
L1L
tp1080
tp1081
Rp1082
I00
tp1083
a(g9
(g10
((lp1084
F-0.44899851083755493
aF-0.9657943248748779
aF-0.8054855465888977
atp1085
Rp1086
I0
(L1L
L3L
tp1087
(L3L
L1L
tp1088
tp1089
Rp1090
g9
(g10
((lp1091
F-0.0013992036692798138
atp1092
Rp1093
I0
(L1L
L1L
tp1094
(L1L
L1L
tp1095
tp1096
Rp1097
g9
(g10
((lp1098
F0.7055702805519104
atp1099
Rp1100
I0
(L1L
L1L
tp1101
(L1L
L1L
tp1102
tp1103
Rp1104
g9
(g10
((lp1105
F0.027132101356983185
aF-0.54593825340271
aF-0.6379761099815369
atp1106
Rp1107
I0
(L1L
L3L
tp1108
(L3L
L1L
tp1109
tp1110
Rp1111
I00
tp1112
a(g9
(g10
((lp1113
F0.027132101356983185
aF-0.54593825340271
aF-0.6379761099815369
atp1114
Rp1115
I0
(L1L
L3L
tp1116
(L3L
L1L
tp1117
tp1118
Rp1119
g9
(g10
((lp1120
F0.00020521807891782373
atp1121
Rp1122
I0
(L1L
L1L
tp1123
(L1L
L1L
tp1124
tp1125
Rp1126
g9
(g10
((lp1127
F0.19165529310703278
atp1128
Rp1129
I0
(L1L
L1L
tp1130
(L1L
L1L
tp1131
tp1132
Rp1133
g9
(g10
((lp1134
F-0.8358393907546997
aF0.68210369348526
aF-0.37575915455818176
atp1135
Rp1136
I0
(L1L
L3L
tp1137
(L3L
L1L
tp1138
tp1139
Rp1140
I00
tp1141
a(g9
(g10
((lp1142
F-0.8358393907546997
aF0.68210369348526
aF-0.37575915455818176
atp1143
Rp1144
I0
(L1L
L3L
tp1145
(L3L
L1L
tp1146
tp1147
Rp1148
g9
(g10
((lp1149
F-0.0006037639686837792
atp1150
Rp1151
I0
(L1L
L1L
tp1152
(L1L
L1L
tp1153
tp1154
Rp1155
g9
(g10
((lp1156
F0.2927991449832916
atp1157
Rp1158
I0
(L1L
L1L
tp1159
(L1L
L1L
tp1160
tp1161
Rp1162
g9
(g10
((lp1163
F-0.09175978600978851
aF-0.20346716046333313
aF0.33993226289749146
atp1164
Rp1165
I0
(L1L
L3L
tp1166
(L3L
L1L
tp1167
tp1168
Rp1169
I00
tp1170
a(g9
(g10
((lp1171
F-0.09175978600978851
aF-0.20346716046333313
aF0.33993226289749146
atp1172
Rp1173
I0
(L1L
L3L
tp1174
(L3L
L1L
tp1175
tp1176
Rp1177
g9
(g10
((lp1178
F0.0012102072359994054
atp1179
Rp1180
I0
(L1L
L1L
tp1181
(L1L
L1L
tp1182
tp1183
Rp1184
g9
(g10
((lp1185
F-0.0036519572604447603
atp1186
Rp1187
I0
(L1L
L1L
tp1188
(L1L
L1L
tp1189
tp1190
Rp1191
g9
(g10
((lp1192
F0.43486449122428894
aF0.2958954870700836
aF0.23021434247493744
atp1193
Rp1194
I0
(L1L
L3L
tp1195
(L3L
L1L
tp1196
tp1197
Rp1198
I00
tp1199
a(g9
(g10
((lp1200
F0.43486449122428894
aF0.2958954870700836
aF0.23021434247493744
atp1201
Rp1202
I0
(L1L
L3L
tp1203
(L3L
L1L
tp1204
tp1205
Rp1206
g9
(g10
((lp1207
F0.003889469662681222
atp1208
Rp1209
I0
(L1L
L1L
tp1210
(L1L
L1L
tp1211
tp1212
Rp1213
g9
(g10
((lp1214
F0.8036664724349976
atp1215
Rp1216
I0
(L1L
L1L
tp1217
(L1L
L1L
tp1218
tp1219
Rp1220
g9
(g10
((lp1221
F-0.4437345266342163
aF0.9478771090507507
aF-0.8467775583267212
atp1222
Rp1223
I0
(L1L
L3L
tp1224
(L3L
L1L
tp1225
tp1226
Rp1227
I00
tp1228
a(g9
(g10
((lp1229
F-0.4437345266342163
aF0.9478771090507507
aF-0.8467775583267212
atp1230
Rp1231
I0
(L1L
L3L
tp1232
(L3L
L1L
tp1233
tp1234
Rp1235
g9
(g10
((lp1236
F-0.00021396134980022907
atp1237
Rp1238
I0
(L1L
L1L
tp1239
(L1L
L1L
tp1240
tp1241
Rp1242
g9
(g10
((lp1243
F0.9963379502296448
atp1244
Rp1245
I0
(L1L
L1L
tp1246
(L1L
L1L
tp1247
tp1248
Rp1249
g9
(g10
((lp1250
F-0.14734312891960144
aF-0.4276840090751648
aF-0.597873330116272
atp1251
Rp1252
I0
(L1L
L3L
tp1253
(L3L
L1L
tp1254
tp1255
Rp1256
I00
tp1257
a(g9
(g10
((lp1258
F-0.14734312891960144
aF-0.4276840090751648
aF-0.597873330116272
atp1259
Rp1260
I0
(L1L
L3L
tp1261
(L3L
L1L
tp1262
tp1263
Rp1264
g9
(g10
((lp1265
F-0.00022431246179621667
atp1266
Rp1267
I0
(L1L
L1L
tp1268
(L1L
L1L
tp1269
tp1270
Rp1271
g9
(g10
((lp1272
F0.9281915426254272
atp1273
Rp1274
I0
(L1L
L1L
tp1275
(L1L
L1L
tp1276
tp1277
Rp1278
g9
(g10
((lp1279
F-0.807991623878479
aF-0.2315000742673874
aF-0.19664999842643738
atp1280
Rp1281
I0
(L1L
L3L
tp1282
(L3L
L1L
tp1283
tp1284
Rp1285
I00
tp1286
a(g9
(g10
((lp1287
F-0.807991623878479
aF-0.2315000742673874
aF-0.19664999842643738
atp1288
Rp1289
I0
(L1L
L3L
tp1290
(L3L
L1L
tp1291
tp1292
Rp1293
g9
(g10
((lp1294
F-0.0022343003656715155
atp1295
Rp1296
I0
(L1L
L1L
tp1297
(L1L
L1L
tp1298
tp1299
Rp1300
g9
(g10
((lp1301
F-0.5904805064201355
atp1302
Rp1303
I0
(L1L
L1L
tp1304
(L1L
L1L
tp1305
tp1306
Rp1307
g9
(g10
((lp1308
F-0.3552466630935669
aF-0.07960488647222519
aF0.20565655827522278
atp1309
Rp1310
I0
(L1L
L3L
tp1311
(L3L
L1L
tp1312
tp1313
Rp1314
I00
tp1315
a(g9
(g10
((lp1316
F-0.3552466630935669
aF-0.07960488647222519
aF0.20565655827522278
atp1317
Rp1318
I0
(L1L
L3L
tp1319
(L3L
L1L
tp1320
tp1321
Rp1322
g9
(g10
((lp1323
F9.54214483499527e-05
atp1324
Rp1325
I0
(L1L
L1L
tp1326
(L1L
L1L
tp1327
tp1328
Rp1329
g9
(g10
((lp1330
F-0.27183789014816284
atp1331
Rp1332
I0
(L1L
L1L
tp1333
(L1L
L1L
tp1334
tp1335
Rp1336
g9
(g10
((lp1337
F0.22925905883312225
aF-0.6522959470748901
aF0.4254481792449951
atp1338
Rp1339
I0
(L1L
L3L
tp1340
(L3L
L1L
tp1341
tp1342
Rp1343
I00
tp1344
a(g9
(g10
((lp1345
F0.22925905883312225
aF-0.6522959470748901
aF0.4254481792449951
atp1346
Rp1347
I0
(L1L
L3L
tp1348
(L3L
L1L
tp1349
tp1350
Rp1351
g9
(g10
((lp1352
F0.003196312114596367
atp1353
Rp1354
I0
(L1L
L1L
tp1355
(L1L
L1L
tp1356
tp1357
Rp1358
g9
(g10
((lp1359
F-0.8232107162475586
atp1360
Rp1361
I0
(L1L
L1L
tp1362
(L1L
L1L
tp1363
tp1364
Rp1365
g9
(g10
((lp1366
F0.27467966079711914
aF-0.0667736679315567
aF0.043522339314222336
atp1367
Rp1368
I0
(L1L
L3L
tp1369
(L3L
L1L
tp1370
tp1371
Rp1372
I00
tp1373
a(g9
(g10
((lp1374
F0.27467966079711914
aF-0.0667736679315567
aF0.043522339314222336
atp1375
Rp1376
I0
(L1L
L3L
tp1377
(L3L
L1L
tp1378
tp1379
Rp1380
g9
(g10
((lp1381
F0.0030352517496794462
atp1382
Rp1383
I0
(L1L
L1L
tp1384
(L1L
L1L
tp1385
tp1386
Rp1387
g9
(g10
((lp1388
F0.953021764755249
atp1389
Rp1390
I0
(L1L
L1L
tp1391
(L1L
L1L
tp1392
tp1393
Rp1394
g9
(g10
((lp1395
F0.7082350850105286
aF0.9357245564460754
aF0.9340141415596008
atp1396
Rp1397
I0
(L1L
L3L
tp1398
(L3L
L1L
tp1399
tp1400
Rp1401
I00
tp1402
a(g9
(g10
((lp1403
F0.7082350850105286
aF0.9357245564460754
aF0.9340141415596008
atp1404
Rp1405
I0
(L1L
L3L
tp1406
(L3L
L1L
tp1407
tp1408
Rp1409
g9
(g10
((lp1410
F0.005396579392254353
atp1411
Rp1412
I0
(L1L
L1L
tp1413
(L1L
L1L
tp1414
tp1415
Rp1416
g9
(g10
((lp1417
F0.7847020626068115
atp1418
Rp1419
I0
(L1L
L1L
tp1420
(L1L
L1L
tp1421
tp1422
Rp1423
g9
(g10
((lp1424
F0.545032799243927
aF0.7817046046257019
aF0.1637810319662094
atp1425
Rp1426
I0
(L1L
L3L
tp1427
(L3L
L1L
tp1428
tp1429
Rp1430
I00
tp1431
a(g9
(g10
((lp1432
F0.545032799243927
aF0.7817046046257019
aF0.1637810319662094
atp1433
Rp1434
I0
(L1L
L3L
tp1435
(L3L
L1L
tp1436
tp1437
Rp1438
g9
(g10
((lp1439
F0.004065142013132572
atp1440
Rp1441
I0
(L1L
L1L
tp1442
(L1L
L1L
tp1443
tp1444
Rp1445
g9
(g10
((lp1446
F-0.6899060010910034
atp1447
Rp1448
I0
(L1L
L1L
tp1449
(L1L
L1L
tp1450
tp1451
Rp1452
g9
(g10
((lp1453
F-0.22687269747257233
aF0.2981387972831726
aF-0.9964836835861206
atp1454
Rp1455
I0
(L1L
L3L
tp1456
(L3L
L1L
tp1457
tp1458
Rp1459
I00
tp1460
a(g9
(g10
((lp1461
F-0.22687269747257233
aF0.2981387972831726
aF-0.9964836835861206
atp1462
Rp1463
I0
(L1L
L3L
tp1464
(L3L
L1L
tp1465
tp1466
Rp1467
g9
(g10
((lp1468
F-0.00016696704551577568
atp1469
Rp1470
I0
(L1L
L1L
tp1471
(L1L
L1L
tp1472
tp1473
Rp1474
g9
(g10
((lp1475
F0.3210499882698059
atp1476
Rp1477
I0
(L1L
L1L
tp1478
(L1L
L1L
tp1479
tp1480
Rp1481
g9
(g10
((lp1482
F0.0858885794878006
aF0.2505975067615509
aF0.8305376172065735
atp1483
Rp1484
I0
(L1L
L3L
tp1485
(L3L
L1L
tp1486
tp1487
Rp1488
I00
tp1489
atp1490
Rp1491
sS'buffer_size'
p1492
I200
sS'num_experiences'
p1493
I51
sb.